(dp0
S'id_to_file_row'
p1
(dp2
I1
(I0
I0
tp3
sI2
(I0
I1
tp4
sI3
(I0
I2
tp5
sI4
(I0
I3
tp6
sI5
(I0
I4
tp7
sI6
(I0
I5
tp8
sI7
(I0
I6
tp9
sI8
(I0
I7
tp10
sI9
(I0
I8
tp11
sI10
(I0
I9
tp12
sI11
(I0
I10
tp13
sI12
(I0
I11
tp14
sI13
(I0
I12
tp15
sI14
(I0
I13
tp16
sI15
(I0
I14
tp17
sI16
(I0
I15
tp18
sI17
(I0
I16
tp19
sI18
(I0
I17
tp20
sI19
(I0
I18
tp21
sI20
(I0
I19
tp22
sI21
(I0
I20
tp23
sI22
(I0
I21
tp24
sI23
(I0
I22
tp25
sI24
(I0
I23
tp26
sI25
(I0
I24
tp27
sI26
(I0
I25
tp28
sI27
(I0
I26
tp29
sI28
(I0
I27
tp30
sI29
(I0
I28
tp31
sI30
(I0
I29
tp32
sI31
(I0
I30
tp33
sI32
(I0
I31
tp34
sI33
(I0
I32
tp35
sI34
(I0
I33
tp36
sI35
(I0
I34
tp37
sI36
(I0
I35
tp38
sI37
(I0
I36
tp39
sI38
(I0
I37
tp40
sI39
(I0
I38
tp41
sI40
(I0
I39
tp42
sI41
(I0
I40
tp43
sI42
(I0
I41
tp44
sI43
(I0
I42
tp45
sI44
(I0
I43
tp46
sI45
(I0
I44
tp47
sI46
(I0
I45
tp48
sI47
(I0
I46
tp49
sI48
(I0
I47
tp50
sI49
(I0
I48
tp51
sI50
(I0
I49
tp52
sI51
(I0
I50
tp53
sI52
(I0
I51
tp54
sI53
(I0
I52
tp55
sI54
(I0
I53
tp56
sI55
(I0
I54
tp57
sI56
(I0
I55
tp58
sI57
(I0
I56
tp59
sI58
(I0
I57
tp60
sI59
(I0
I58
tp61
sI60
(I0
I59
tp62
sI61
(I0
I60
tp63
sI62
(I0
I61
tp64
sI63
(I0
I62
tp65
sI64
(I0
I63
tp66
sI65
(I0
I64
tp67
sI66
(I0
I65
tp68
sI67
(I0
I66
tp69
sI68
(I0
I67
tp70
sI69
(I0
I68
tp71
sI70
(I0
I69
tp72
sI71
(I0
I70
tp73
sI72
(I0
I71
tp74
sI73
(I0
I72
tp75
sI74
(I0
I73
tp76
sI75
(I0
I74
tp77
sI76
(I0
I75
tp78
sI77
(I0
I76
tp79
sI78
(I0
I77
tp80
sI79
(I0
I78
tp81
sI80
(I0
I79
tp82
sI81
(I0
I80
tp83
sI82
(I0
I81
tp84
sI83
(I0
I82
tp85
sI84
(I0
I83
tp86
sI85
(I0
I84
tp87
sI86
(I0
I85
tp88
sI87
(I0
I86
tp89
sI88
(I0
I87
tp90
sI89
(I0
I88
tp91
sI90
(I0
I89
tp92
sI91
(I0
I90
tp93
sI92
(I0
I91
tp94
sI93
(I0
I92
tp95
sI94
(I0
I93
tp96
sI95
(I0
I94
tp97
sI96
(I0
I95
tp98
sI97
(I0
I96
tp99
sI98
(I0
I97
tp100
sI99
(I0
I98
tp101
sI100
(I0
I99
tp102
sI101
(I0
I100
tp103
sI102
(I0
I101
tp104
sI103
(I0
I102
tp105
sI104
(I0
I103
tp106
sI105
(I0
I104
tp107
sI106
(I0
I105
tp108
sI107
(I0
I106
tp109
sI108
(I0
I107
tp110
sI109
(I0
I108
tp111
sI110
(I0
I109
tp112
sI111
(I0
I110
tp113
sI112
(I0
I111
tp114
sI113
(I0
I112
tp115
sI114
(I0
I113
tp116
sI115
(I0
I114
tp117
sI116
(I0
I115
tp118
sI117
(I0
I116
tp119
sI118
(I0
I117
tp120
sI119
(I0
I118
tp121
sI120
(I0
I119
tp122
sI121
(I0
I120
tp123
sI122
(I0
I121
tp124
sI123
(I0
I122
tp125
sI124
(I0
I123
tp126
sI125
(I0
I124
tp127
sI126
(I0
I125
tp128
sI127
(I0
I126
tp129
sI128
(I0
I127
tp130
sI129
(I0
I128
tp131
sI130
(I0
I129
tp132
sI131
(I0
I130
tp133
sI132
(I0
I131
tp134
sI133
(I0
I132
tp135
sI134
(I0
I133
tp136
sI135
(I0
I134
tp137
sI136
(I0
I135
tp138
sI137
(I0
I136
tp139
sI138
(I0
I137
tp140
sI139
(I0
I138
tp141
sI140
(I0
I139
tp142
sI141
(I0
I140
tp143
sI142
(I0
I141
tp144
sI143
(I0
I142
tp145
sI144
(I0
I143
tp146
sI145
(I0
I144
tp147
sI146
(I0
I145
tp148
sI147
(I0
I146
tp149
sI148
(I0
I147
tp150
sI149
(I0
I148
tp151
sI150
(I0
I149
tp152
sI151
(I0
I150
tp153
sI152
(I0
I151
tp154
sI153
(I0
I152
tp155
sI154
(I0
I153
tp156
sI155
(I0
I154
tp157
sI156
(I0
I155
tp158
sI157
(I0
I156
tp159
sI158
(I0
I157
tp160
sI159
(I0
I158
tp161
sI160
(I0
I159
tp162
sI161
(I0
I160
tp163
sI162
(I0
I161
tp164
sI163
(I0
I162
tp165
sI164
(I0
I163
tp166
sI165
(I0
I164
tp167
sI166
(I0
I165
tp168
sI167
(I0
I166
tp169
sI168
(I0
I167
tp170
sI169
(I0
I168
tp171
sI170
(I0
I169
tp172
sI171
(I0
I170
tp173
sI172
(I0
I171
tp174
sI173
(I0
I172
tp175
sI174
(I0
I173
tp176
sI175
(I0
I174
tp177
sI176
(I0
I175
tp178
sI177
(I0
I176
tp179
sI178
(I0
I177
tp180
sI179
(I0
I178
tp181
sI180
(I0
I179
tp182
sI181
(I0
I180
tp183
sI182
(I0
I181
tp184
sI183
(I0
I182
tp185
sI184
(I0
I183
tp186
sI185
(I0
I184
tp187
sI186
(I0
I185
tp188
sI187
(I0
I186
tp189
sI188
(I0
I187
tp190
sI189
(I0
I188
tp191
sI190
(I0
I189
tp192
sI191
(I0
I190
tp193
sI192
(I0
I191
tp194
sI193
(I0
I192
tp195
sI194
(I0
I193
tp196
sI195
(I0
I194
tp197
sI196
(I0
I195
tp198
sI197
(I0
I196
tp199
sI198
(I0
I197
tp200
sI199
(I0
I198
tp201
sI200
(I0
I199
tp202
sI201
(I0
I200
tp203
sI202
(I0
I201
tp204
sI203
(I0
I202
tp205
sI204
(I0
I203
tp206
sI205
(I0
I204
tp207
sI206
(I0
I205
tp208
sI207
(I0
I206
tp209
sI208
(I0
I207
tp210
sI209
(I0
I208
tp211
sI210
(I0
I209
tp212
sI211
(I0
I210
tp213
sI212
(I0
I211
tp214
sI213
(I0
I212
tp215
sI214
(I0
I213
tp216
sI215
(I0
I214
tp217
sI216
(I0
I215
tp218
sI217
(I0
I216
tp219
sI218
(I0
I217
tp220
sI219
(I0
I218
tp221
sI220
(I0
I219
tp222
sI221
(I0
I220
tp223
sI222
(I0
I221
tp224
sI223
(I0
I222
tp225
sI224
(I0
I223
tp226
sI225
(I0
I224
tp227
sI226
(I0
I225
tp228
sI227
(I0
I226
tp229
sI228
(I0
I227
tp230
sI229
(I0
I228
tp231
sI230
(I0
I229
tp232
sI231
(I0
I230
tp233
sI232
(I0
I231
tp234
sI233
(I0
I232
tp235
sI234
(I0
I233
tp236
sI235
(I0
I234
tp237
sI236
(I0
I235
tp238
sI237
(I0
I236
tp239
sI238
(I0
I237
tp240
sI239
(I0
I238
tp241
sI240
(I0
I239
tp242
sI241
(I0
I240
tp243
sI242
(I0
I241
tp244
sI243
(I0
I242
tp245
sI244
(I0
I243
tp246
sI245
(I0
I244
tp247
sI246
(I0
I245
tp248
sI247
(I0
I246
tp249
sI248
(I0
I247
tp250
sI249
(I0
I248
tp251
sI250
(I0
I249
tp252
sI251
(I0
I250
tp253
sI252
(I0
I251
tp254
sI253
(I0
I252
tp255
sI254
(I0
I253
tp256
sI255
(I0
I254
tp257
sI256
(I0
I255
tp258
sI257
(I0
I256
tp259
sI258
(I0
I257
tp260
sI259
(I0
I258
tp261
sI260
(I0
I259
tp262
sI261
(I0
I260
tp263
sI262
(I0
I261
tp264
sI263
(I0
I262
tp265
sI264
(I0
I263
tp266
sI265
(I0
I264
tp267
sI266
(I0
I265
tp268
sI267
(I0
I266
tp269
sI268
(I0
I267
tp270
sI269
(I0
I268
tp271
sI270
(I0
I269
tp272
sI271
(I0
I270
tp273
sI272
(I0
I271
tp274
sI273
(I0
I272
tp275
sI274
(I0
I273
tp276
sI275
(I0
I274
tp277
sI276
(I0
I275
tp278
sI277
(I0
I276
tp279
sI278
(I0
I277
tp280
sI279
(I0
I278
tp281
sI280
(I0
I279
tp282
sI281
(I0
I280
tp283
sI282
(I0
I281
tp284
sI283
(I0
I282
tp285
sI284
(I0
I283
tp286
sI285
(I0
I284
tp287
sI286
(I0
I285
tp288
sI287
(I0
I286
tp289
sI288
(I0
I287
tp290
sI289
(I0
I288
tp291
sI290
(I0
I289
tp292
sI291
(I0
I290
tp293
sI292
(I0
I291
tp294
sI293
(I0
I292
tp295
sI294
(I0
I293
tp296
sI295
(I0
I294
tp297
sI296
(I0
I295
tp298
sI297
(I0
I296
tp299
sI298
(I0
I297
tp300
sI299
(I0
I298
tp301
sI300
(I0
I299
tp302
sI301
(I0
I300
tp303
sI302
(I0
I301
tp304
sI303
(I0
I302
tp305
sI304
(I0
I303
tp306
sI305
(I0
I304
tp307
sI306
(I0
I305
tp308
sI307
(I0
I306
tp309
sI308
(I0
I307
tp310
sI309
(I0
I308
tp311
sI310
(I0
I309
tp312
sI311
(I0
I310
tp313
sI312
(I0
I311
tp314
sI313
(I0
I312
tp315
sI314
(I0
I313
tp316
sI315
(I0
I314
tp317
sI316
(I0
I315
tp318
sI317
(I0
I316
tp319
sI318
(I0
I317
tp320
sI319
(I0
I318
tp321
sI320
(I0
I319
tp322
sI321
(I0
I320
tp323
sI322
(I0
I321
tp324
sI323
(I0
I322
tp325
sI324
(I0
I323
tp326
sI325
(I0
I324
tp327
sI326
(I0
I325
tp328
sI327
(I0
I326
tp329
sI328
(I0
I327
tp330
sI329
(I0
I328
tp331
sI330
(I0
I329
tp332
sI331
(I0
I330
tp333
sI332
(I0
I331
tp334
sI333
(I0
I332
tp335
sI334
(I0
I333
tp336
sI335
(I0
I334
tp337
sI336
(I0
I335
tp338
sI337
(I0
I336
tp339
sI338
(I0
I337
tp340
sI339
(I0
I338
tp341
sI340
(I0
I339
tp342
sI341
(I0
I340
tp343
sI342
(I0
I341
tp344
sI343
(I0
I342
tp345
sI344
(I0
I343
tp346
sI345
(I0
I344
tp347
sI346
(I0
I345
tp348
sI347
(I0
I346
tp349
sI348
(I0
I347
tp350
sI349
(I0
I348
tp351
sI350
(I0
I349
tp352
sI351
(I0
I350
tp353
sI352
(I0
I351
tp354
sI353
(I0
I352
tp355
sI354
(I0
I353
tp356
sI355
(I0
I354
tp357
sI356
(I0
I355
tp358
sI357
(I0
I356
tp359
sI358
(I0
I357
tp360
sI359
(I0
I358
tp361
sI360
(I0
I359
tp362
sI361
(I0
I360
tp363
sI362
(I0
I361
tp364
sI363
(I0
I362
tp365
sI364
(I0
I363
tp366
sI365
(I0
I364
tp367
sI366
(I0
I365
tp368
sI367
(I0
I366
tp369
sI368
(I0
I367
tp370
sI369
(I0
I368
tp371
sI370
(I0
I369
tp372
sI371
(I0
I370
tp373
sI372
(I0
I371
tp374
sI373
(I0
I372
tp375
sI374
(I0
I373
tp376
sI375
(I0
I374
tp377
sI376
(I0
I375
tp378
sI377
(I0
I376
tp379
sI378
(I0
I377
tp380
sI379
(I0
I378
tp381
sI380
(I0
I379
tp382
sI381
(I0
I380
tp383
sI382
(I0
I381
tp384
sI383
(I0
I382
tp385
sI384
(I0
I383
tp386
sI385
(I0
I384
tp387
sI386
(I0
I385
tp388
sI387
(I0
I386
tp389
sI388
(I0
I387
tp390
sI389
(I0
I388
tp391
sI390
(I0
I389
tp392
sI391
(I0
I390
tp393
sI392
(I0
I391
tp394
sI393
(I0
I392
tp395
sI394
(I0
I393
tp396
sI395
(I0
I394
tp397
sI396
(I0
I395
tp398
sI397
(I0
I396
tp399
sI398
(I0
I397
tp400
sI399
(I0
I398
tp401
sI400
(I0
I399
tp402
sI401
(I0
I400
tp403
sI402
(I0
I401
tp404
sI403
(I0
I402
tp405
sI404
(I0
I403
tp406
sI405
(I0
I404
tp407
sI406
(I0
I405
tp408
sI407
(I0
I406
tp409
sI408
(I0
I407
tp410
sI409
(I0
I408
tp411
sI410
(I0
I409
tp412
sI411
(I0
I410
tp413
sI412
(I0
I411
tp414
sI413
(I0
I412
tp415
sI414
(I0
I413
tp416
sI415
(I0
I414
tp417
sI416
(I0
I415
tp418
sI417
(I0
I416
tp419
sI418
(I0
I417
tp420
sI419
(I0
I418
tp421
sI420
(I0
I419
tp422
sI421
(I0
I420
tp423
sI422
(I0
I421
tp424
sI423
(I0
I422
tp425
sI424
(I0
I423
tp426
sI425
(I0
I424
tp427
sI426
(I0
I425
tp428
sI427
(I0
I426
tp429
sI428
(I0
I427
tp430
sI429
(I0
I428
tp431
sI430
(I0
I429
tp432
sI431
(I0
I430
tp433
sI432
(I0
I431
tp434
sI433
(I0
I432
tp435
sI434
(I0
I433
tp436
sI435
(I0
I434
tp437
sI436
(I0
I435
tp438
sI437
(I0
I436
tp439
sI438
(I0
I437
tp440
sI439
(I0
I438
tp441
sI440
(I0
I439
tp442
sI441
(I0
I440
tp443
sI442
(I0
I441
tp444
sI443
(I0
I442
tp445
sI444
(I0
I443
tp446
sI445
(I0
I444
tp447
sI446
(I0
I445
tp448
sI447
(I0
I446
tp449
sI448
(I0
I447
tp450
sI449
(I0
I448
tp451
sI450
(I0
I449
tp452
sI451
(I0
I450
tp453
sI452
(I0
I451
tp454
sI453
(I0
I452
tp455
sI454
(I0
I453
tp456
sI455
(I0
I454
tp457
sI456
(I0
I455
tp458
sI457
(I0
I456
tp459
sI458
(I0
I457
tp460
sI459
(I0
I458
tp461
sI460
(I0
I459
tp462
sI461
(I0
I460
tp463
sI462
(I0
I461
tp464
sI463
(I0
I462
tp465
sI464
(I0
I463
tp466
sI465
(I0
I464
tp467
sI466
(I0
I465
tp468
sI467
(I0
I466
tp469
sI468
(I0
I467
tp470
sI469
(I0
I468
tp471
sI470
(I0
I469
tp472
sI471
(I0
I470
tp473
sI472
(I0
I471
tp474
sI473
(I0
I472
tp475
sI474
(I0
I473
tp476
sI475
(I0
I474
tp477
sI476
(I0
I475
tp478
sI477
(I0
I476
tp479
sI478
(I0
I477
tp480
sI479
(I0
I478
tp481
sI480
(I0
I479
tp482
sI481
(I0
I480
tp483
sI482
(I0
I481
tp484
sI483
(I0
I482
tp485
sI484
(I0
I483
tp486
sI485
(I0
I484
tp487
sI486
(I0
I485
tp488
sI487
(I0
I486
tp489
sI488
(I0
I487
tp490
sI489
(I0
I488
tp491
sI490
(I0
I489
tp492
sI491
(I0
I490
tp493
sI492
(I0
I491
tp494
sI493
(I0
I492
tp495
sI494
(I0
I493
tp496
sI495
(I0
I494
tp497
sI496
(I0
I495
tp498
sI497
(I0
I496
tp499
sI498
(I0
I497
tp500
sI499
(I0
I498
tp501
sI500
(I0
I499
tp502
sI501
(I0
I500
tp503
sI502
(I0
I501
tp504
sI503
(I0
I502
tp505
sI504
(I0
I503
tp506
sI505
(I0
I504
tp507
sI506
(I0
I505
tp508
sI507
(I0
I506
tp509
sI508
(I0
I507
tp510
sI509
(I0
I508
tp511
sI510
(I0
I509
tp512
sI511
(I0
I510
tp513
sI512
(I0
I511
tp514
sI513
(I0
I512
tp515
sI514
(I0
I513
tp516
sI515
(I0
I514
tp517
sI516
(I0
I515
tp518
sI517
(I0
I516
tp519
sI518
(I0
I517
tp520
sI519
(I0
I518
tp521
sI520
(I0
I519
tp522
sI521
(I0
I520
tp523
sI522
(I0
I521
tp524
sI523
(I0
I522
tp525
sI524
(I0
I523
tp526
sI525
(I0
I524
tp527
sI526
(I0
I525
tp528
sI527
(I0
I526
tp529
sI528
(I0
I527
tp530
sI529
(I0
I528
tp531
sI530
(I0
I529
tp532
sI531
(I0
I530
tp533
sI532
(I0
I531
tp534
sI533
(I0
I532
tp535
sI534
(I0
I533
tp536
sI535
(I0
I534
tp537
sI536
(I0
I535
tp538
sI537
(I0
I536
tp539
sI538
(I0
I537
tp540
sI539
(I0
I538
tp541
sI540
(I0
I539
tp542
sI541
(I0
I540
tp543
sI542
(I0
I541
tp544
sI543
(I0
I542
tp545
sI544
(I0
I543
tp546
sI545
(I0
I544
tp547
sI546
(I0
I545
tp548
sI547
(I0
I546
tp549
sI548
(I0
I547
tp550
sI549
(I0
I548
tp551
sI550
(I0
I549
tp552
sI551
(I0
I550
tp553
sI552
(I0
I551
tp554
sI553
(I0
I552
tp555
sI554
(I0
I553
tp556
sI555
(I0
I554
tp557
sI556
(I0
I555
tp558
sI557
(I0
I556
tp559
sI558
(I0
I557
tp560
sI559
(I0
I558
tp561
sI560
(I0
I559
tp562
sI561
(I0
I560
tp563
sI562
(I0
I561
tp564
sI563
(I0
I562
tp565
sI564
(I0
I563
tp566
sI565
(I0
I564
tp567
sI566
(I0
I565
tp568
sI567
(I0
I566
tp569
sI568
(I0
I567
tp570
sI569
(I0
I568
tp571
sI570
(I0
I569
tp572
sI571
(I0
I570
tp573
sI572
(I0
I571
tp574
sI573
(I0
I572
tp575
sI574
(I0
I573
tp576
sI575
(I0
I574
tp577
sI576
(I0
I575
tp578
sI577
(I0
I576
tp579
sI578
(I0
I577
tp580
sI579
(I0
I578
tp581
sI580
(I0
I579
tp582
sI581
(I0
I580
tp583
sI582
(I0
I581
tp584
sI583
(I0
I582
tp585
sI584
(I0
I583
tp586
sI585
(I0
I584
tp587
sI586
(I0
I585
tp588
sI587
(I0
I586
tp589
sI588
(I0
I587
tp590
sI589
(I0
I588
tp591
sI590
(I0
I589
tp592
sI591
(I0
I590
tp593
sI592
(I0
I591
tp594
sI593
(I0
I592
tp595
sI594
(I0
I593
tp596
sI595
(I0
I594
tp597
sI596
(I0
I595
tp598
sI597
(I0
I596
tp599
sI598
(I0
I597
tp600
sI599
(I0
I598
tp601
sI600
(I0
I599
tp602
sI601
(I0
I600
tp603
sI602
(I0
I601
tp604
sI603
(I0
I602
tp605
sI604
(I0
I603
tp606
sI605
(I0
I604
tp607
sI606
(I0
I605
tp608
sI607
(I0
I606
tp609
sI608
(I0
I607
tp610
sI609
(I0
I608
tp611
sI610
(I0
I609
tp612
sI611
(I0
I610
tp613
sI612
(I0
I611
tp614
sI613
(I0
I612
tp615
sI614
(I0
I613
tp616
sI615
(I0
I614
tp617
sI616
(I0
I615
tp618
sI617
(I0
I616
tp619
sI618
(I0
I617
tp620
sI619
(I0
I618
tp621
sI620
(I0
I619
tp622
sI621
(I0
I620
tp623
sI622
(I0
I621
tp624
sI623
(I0
I622
tp625
sI624
(I0
I623
tp626
sI625
(I0
I624
tp627
sI626
(I0
I625
tp628
sI627
(I0
I626
tp629
sI628
(I0
I627
tp630
sI629
(I0
I628
tp631
sI630
(I0
I629
tp632
sI631
(I0
I630
tp633
sI632
(I0
I631
tp634
sI633
(I0
I632
tp635
sI634
(I0
I633
tp636
sI635
(I0
I634
tp637
sI636
(I0
I635
tp638
sI637
(I0
I636
tp639
sI638
(I0
I637
tp640
sI639
(I0
I638
tp641
sI640
(I0
I639
tp642
sI641
(I0
I640
tp643
sI642
(I0
I641
tp644
sI643
(I0
I642
tp645
sI644
(I0
I643
tp646
sI645
(I0
I644
tp647
sI646
(I0
I645
tp648
sI647
(I0
I646
tp649
sI648
(I0
I647
tp650
sI649
(I0
I648
tp651
sI650
(I0
I649
tp652
sI651
(I0
I650
tp653
sI652
(I0
I651
tp654
sI653
(I0
I652
tp655
sI654
(I0
I653
tp656
sI655
(I0
I654
tp657
sI656
(I0
I655
tp658
sI657
(I0
I656
tp659
sI658
(I0
I657
tp660
sI659
(I0
I658
tp661
sI660
(I0
I659
tp662
sI661
(I0
I660
tp663
sI662
(I0
I661
tp664
sI663
(I0
I662
tp665
sI664
(I0
I663
tp666
sI665
(I0
I664
tp667
sI666
(I0
I665
tp668
sI667
(I0
I666
tp669
sI668
(I0
I667
tp670
sI669
(I0
I668
tp671
sI670
(I0
I669
tp672
sI671
(I0
I670
tp673
sI672
(I0
I671
tp674
sI673
(I0
I672
tp675
sI674
(I0
I673
tp676
sI675
(I0
I674
tp677
sI676
(I0
I675
tp678
sI677
(I0
I676
tp679
sI678
(I0
I677
tp680
sI679
(I0
I678
tp681
sI680
(I0
I679
tp682
sI681
(I0
I680
tp683
sI682
(I0
I681
tp684
sI683
(I0
I682
tp685
sI684
(I0
I683
tp686
sI685
(I0
I684
tp687
sI686
(I0
I685
tp688
sI687
(I0
I686
tp689
sI688
(I0
I687
tp690
sI689
(I0
I688
tp691
sI690
(I0
I689
tp692
sI691
(I0
I690
tp693
sI692
(I0
I691
tp694
sI693
(I0
I692
tp695
sI694
(I0
I693
tp696
sI695
(I0
I694
tp697
sI696
(I0
I695
tp698
sI697
(I0
I696
tp699
sI698
(I0
I697
tp700
sI699
(I0
I698
tp701
sI700
(I0
I699
tp702
sI701
(I0
I700
tp703
sI702
(I0
I701
tp704
sI703
(I0
I702
tp705
sI704
(I0
I703
tp706
sI705
(I0
I704
tp707
sI706
(I0
I705
tp708
sI707
(I0
I706
tp709
sI708
(I0
I707
tp710
sI709
(I0
I708
tp711
sI710
(I0
I709
tp712
sI711
(I0
I710
tp713
sI712
(I0
I711
tp714
sI713
(I0
I712
tp715
sI714
(I0
I713
tp716
sI715
(I0
I714
tp717
sI716
(I0
I715
tp718
sI717
(I0
I716
tp719
sI718
(I0
I717
tp720
sI719
(I0
I718
tp721
sI720
(I0
I719
tp722
sI721
(I0
I720
tp723
sI722
(I0
I721
tp724
sI723
(I0
I722
tp725
sI724
(I0
I723
tp726
sI725
(I0
I724
tp727
sI726
(I0
I725
tp728
sI727
(I0
I726
tp729
sI728
(I0
I727
tp730
sI729
(I0
I728
tp731
sI730
(I0
I729
tp732
sI731
(I0
I730
tp733
sI732
(I0
I731
tp734
sI733
(I0
I732
tp735
sI734
(I0
I733
tp736
sI735
(I0
I734
tp737
sI736
(I0
I735
tp738
sI737
(I0
I736
tp739
sI738
(I0
I737
tp740
sI739
(I0
I738
tp741
sI740
(I0
I739
tp742
sI741
(I0
I740
tp743
sI742
(I0
I741
tp744
sI743
(I0
I742
tp745
sI744
(I0
I743
tp746
sI745
(I0
I744
tp747
sI746
(I0
I745
tp748
sI747
(I0
I746
tp749
sI748
(I0
I747
tp750
sI749
(I0
I748
tp751
sI750
(I0
I749
tp752
sI751
(I0
I750
tp753
sI752
(I0
I751
tp754
sI753
(I0
I752
tp755
sI754
(I0
I753
tp756
sI755
(I0
I754
tp757
sI756
(I0
I755
tp758
sI757
(I0
I756
tp759
sI758
(I0
I757
tp760
sI759
(I0
I758
tp761
sI760
(I0
I759
tp762
sI761
(I0
I760
tp763
sI762
(I0
I761
tp764
sI763
(I0
I762
tp765
sI764
(I0
I763
tp766
sI765
(I0
I764
tp767
sI766
(I0
I765
tp768
sI767
(I0
I766
tp769
sI768
(I0
I767
tp770
sI769
(I0
I768
tp771
sI770
(I0
I769
tp772
sI771
(I0
I770
tp773
sI772
(I0
I771
tp774
sI773
(I0
I772
tp775
sI774
(I0
I773
tp776
sI775
(I0
I774
tp777
sI776
(I0
I775
tp778
sI777
(I0
I776
tp779
sI778
(I0
I777
tp780
sI779
(I0
I778
tp781
sI780
(I0
I779
tp782
sI781
(I0
I780
tp783
sI782
(I0
I781
tp784
ssS'file_row_to_id_map'
p785
(dp786
I0
(dp787
I0
I1
sI1
I2
sI2
I3
sI3
I4
sI4
I5
sI5
I6
sI6
I7
sI7
I8
sI8
I9
sI9
I10
sI10
I11
sI11
I12
sI12
I13
sI13
I14
sI14
I15
sI15
I16
sI16
I17
sI17
I18
sI18
I19
sI19
I20
sI20
I21
sI21
I22
sI22
I23
sI23
I24
sI24
I25
sI25
I26
sI26
I27
sI27
I28
sI28
I29
sI29
I30
sI30
I31
sI31
I32
sI32
I33
sI33
I34
sI34
I35
sI35
I36
sI36
I37
sI37
I38
sI38
I39
sI39
I40
sI40
I41
sI41
I42
sI42
I43
sI43
I44
sI44
I45
sI45
I46
sI46
I47
sI47
I48
sI48
I49
sI49
I50
sI50
I51
sI51
I52
sI52
I53
sI53
I54
sI54
I55
sI55
I56
sI56
I57
sI57
I58
sI58
I59
sI59
I60
sI60
I61
sI61
I62
sI62
I63
sI63
I64
sI64
I65
sI65
I66
sI66
I67
sI67
I68
sI68
I69
sI69
I70
sI70
I71
sI71
I72
sI72
I73
sI73
I74
sI74
I75
sI75
I76
sI76
I77
sI77
I78
sI78
I79
sI79
I80
sI80
I81
sI81
I82
sI82
I83
sI83
I84
sI84
I85
sI85
I86
sI86
I87
sI87
I88
sI88
I89
sI89
I90
sI90
I91
sI91
I92
sI92
I93
sI93
I94
sI94
I95
sI95
I96
sI96
I97
sI97
I98
sI98
I99
sI99
I100
sI100
I101
sI101
I102
sI102
I103
sI103
I104
sI104
I105
sI105
I106
sI106
I107
sI107
I108
sI108
I109
sI109
I110
sI110
I111
sI111
I112
sI112
I113
sI113
I114
sI114
I115
sI115
I116
sI116
I117
sI117
I118
sI118
I119
sI119
I120
sI120
I121
sI121
I122
sI122
I123
sI123
I124
sI124
I125
sI125
I126
sI126
I127
sI127
I128
sI128
I129
sI129
I130
sI130
I131
sI131
I132
sI132
I133
sI133
I134
sI134
I135
sI135
I136
sI136
I137
sI137
I138
sI138
I139
sI139
I140
sI140
I141
sI141
I142
sI142
I143
sI143
I144
sI144
I145
sI145
I146
sI146
I147
sI147
I148
sI148
I149
sI149
I150
sI150
I151
sI151
I152
sI152
I153
sI153
I154
sI154
I155
sI155
I156
sI156
I157
sI157
I158
sI158
I159
sI159
I160
sI160
I161
sI161
I162
sI162
I163
sI163
I164
sI164
I165
sI165
I166
sI166
I167
sI167
I168
sI168
I169
sI169
I170
sI170
I171
sI171
I172
sI172
I173
sI173
I174
sI174
I175
sI175
I176
sI176
I177
sI177
I178
sI178
I179
sI179
I180
sI180
I181
sI181
I182
sI182
I183
sI183
I184
sI184
I185
sI185
I186
sI186
I187
sI187
I188
sI188
I189
sI189
I190
sI190
I191
sI191
I192
sI192
I193
sI193
I194
sI194
I195
sI195
I196
sI196
I197
sI197
I198
sI198
I199
sI199
I200
sI200
I201
sI201
I202
sI202
I203
sI203
I204
sI204
I205
sI205
I206
sI206
I207
sI207
I208
sI208
I209
sI209
I210
sI210
I211
sI211
I212
sI212
I213
sI213
I214
sI214
I215
sI215
I216
sI216
I217
sI217
I218
sI218
I219
sI219
I220
sI220
I221
sI221
I222
sI222
I223
sI223
I224
sI224
I225
sI225
I226
sI226
I227
sI227
I228
sI228
I229
sI229
I230
sI230
I231
sI231
I232
sI232
I233
sI233
I234
sI234
I235
sI235
I236
sI236
I237
sI237
I238
sI238
I239
sI239
I240
sI240
I241
sI241
I242
sI242
I243
sI243
I244
sI244
I245
sI245
I246
sI246
I247
sI247
I248
sI248
I249
sI249
I250
sI250
I251
sI251
I252
sI252
I253
sI253
I254
sI254
I255
sI255
I256
sI256
I257
sI257
I258
sI258
I259
sI259
I260
sI260
I261
sI261
I262
sI262
I263
sI263
I264
sI264
I265
sI265
I266
sI266
I267
sI267
I268
sI268
I269
sI269
I270
sI270
I271
sI271
I272
sI272
I273
sI273
I274
sI274
I275
sI275
I276
sI276
I277
sI277
I278
sI278
I279
sI279
I280
sI280
I281
sI281
I282
sI282
I283
sI283
I284
sI284
I285
sI285
I286
sI286
I287
sI287
I288
sI288
I289
sI289
I290
sI290
I291
sI291
I292
sI292
I293
sI293
I294
sI294
I295
sI295
I296
sI296
I297
sI297
I298
sI298
I299
sI299
I300
sI300
I301
sI301
I302
sI302
I303
sI303
I304
sI304
I305
sI305
I306
sI306
I307
sI307
I308
sI308
I309
sI309
I310
sI310
I311
sI311
I312
sI312
I313
sI313
I314
sI314
I315
sI315
I316
sI316
I317
sI317
I318
sI318
I319
sI319
I320
sI320
I321
sI321
I322
sI322
I323
sI323
I324
sI324
I325
sI325
I326
sI326
I327
sI327
I328
sI328
I329
sI329
I330
sI330
I331
sI331
I332
sI332
I333
sI333
I334
sI334
I335
sI335
I336
sI336
I337
sI337
I338
sI338
I339
sI339
I340
sI340
I341
sI341
I342
sI342
I343
sI343
I344
sI344
I345
sI345
I346
sI346
I347
sI347
I348
sI348
I349
sI349
I350
sI350
I351
sI351
I352
sI352
I353
sI353
I354
sI354
I355
sI355
I356
sI356
I357
sI357
I358
sI358
I359
sI359
I360
sI360
I361
sI361
I362
sI362
I363
sI363
I364
sI364
I365
sI365
I366
sI366
I367
sI367
I368
sI368
I369
sI369
I370
sI370
I371
sI371
I372
sI372
I373
sI373
I374
sI374
I375
sI375
I376
sI376
I377
sI377
I378
sI378
I379
sI379
I380
sI380
I381
sI381
I382
sI382
I383
sI383
I384
sI384
I385
sI385
I386
sI386
I387
sI387
I388
sI388
I389
sI389
I390
sI390
I391
sI391
I392
sI392
I393
sI393
I394
sI394
I395
sI395
I396
sI396
I397
sI397
I398
sI398
I399
sI399
I400
sI400
I401
sI401
I402
sI402
I403
sI403
I404
sI404
I405
sI405
I406
sI406
I407
sI407
I408
sI408
I409
sI409
I410
sI410
I411
sI411
I412
sI412
I413
sI413
I414
sI414
I415
sI415
I416
sI416
I417
sI417
I418
sI418
I419
sI419
I420
sI420
I421
sI421
I422
sI422
I423
sI423
I424
sI424
I425
sI425
I426
sI426
I427
sI427
I428
sI428
I429
sI429
I430
sI430
I431
sI431
I432
sI432
I433
sI433
I434
sI434
I435
sI435
I436
sI436
I437
sI437
I438
sI438
I439
sI439
I440
sI440
I441
sI441
I442
sI442
I443
sI443
I444
sI444
I445
sI445
I446
sI446
I447
sI447
I448
sI448
I449
sI449
I450
sI450
I451
sI451
I452
sI452
I453
sI453
I454
sI454
I455
sI455
I456
sI456
I457
sI457
I458
sI458
I459
sI459
I460
sI460
I461
sI461
I462
sI462
I463
sI463
I464
sI464
I465
sI465
I466
sI466
I467
sI467
I468
sI468
I469
sI469
I470
sI470
I471
sI471
I472
sI472
I473
sI473
I474
sI474
I475
sI475
I476
sI476
I477
sI477
I478
sI478
I479
sI479
I480
sI480
I481
sI481
I482
sI482
I483
sI483
I484
sI484
I485
sI485
I486
sI486
I487
sI487
I488
sI488
I489
sI489
I490
sI490
I491
sI491
I492
sI492
I493
sI493
I494
sI494
I495
sI495
I496
sI496
I497
sI497
I498
sI498
I499
sI499
I500
sI500
I501
sI501
I502
sI502
I503
sI503
I504
sI504
I505
sI505
I506
sI506
I507
sI507
I508
sI508
I509
sI509
I510
sI510
I511
sI511
I512
sI512
I513
sI513
I514
sI514
I515
sI515
I516
sI516
I517
sI517
I518
sI518
I519
sI519
I520
sI520
I521
sI521
I522
sI522
I523
sI523
I524
sI524
I525
sI525
I526
sI526
I527
sI527
I528
sI528
I529
sI529
I530
sI530
I531
sI531
I532
sI532
I533
sI533
I534
sI534
I535
sI535
I536
sI536
I537
sI537
I538
sI538
I539
sI539
I540
sI540
I541
sI541
I542
sI542
I543
sI543
I544
sI544
I545
sI545
I546
sI546
I547
sI547
I548
sI548
I549
sI549
I550
sI550
I551
sI551
I552
sI552
I553
sI553
I554
sI554
I555
sI555
I556
sI556
I557
sI557
I558
sI558
I559
sI559
I560
sI560
I561
sI561
I562
sI562
I563
sI563
I564
sI564
I565
sI565
I566
sI566
I567
sI567
I568
sI568
I569
sI569
I570
sI570
I571
sI571
I572
sI572
I573
sI573
I574
sI574
I575
sI575
I576
sI576
I577
sI577
I578
sI578
I579
sI579
I580
sI580
I581
sI581
I582
sI582
I583
sI583
I584
sI584
I585
sI585
I586
sI586
I587
sI587
I588
sI588
I589
sI589
I590
sI590
I591
sI591
I592
sI592
I593
sI593
I594
sI594
I595
sI595
I596
sI596
I597
sI597
I598
sI598
I599
sI599
I600
sI600
I601
sI601
I602
sI602
I603
sI603
I604
sI604
I605
sI605
I606
sI606
I607
sI607
I608
sI608
I609
sI609
I610
sI610
I611
sI611
I612
sI612
I613
sI613
I614
sI614
I615
sI615
I616
sI616
I617
sI617
I618
sI618
I619
sI619
I620
sI620
I621
sI621
I622
sI622
I623
sI623
I624
sI624
I625
sI625
I626
sI626
I627
sI627
I628
sI628
I629
sI629
I630
sI630
I631
sI631
I632
sI632
I633
sI633
I634
sI634
I635
sI635
I636
sI636
I637
sI637
I638
sI638
I639
sI639
I640
sI640
I641
sI641
I642
sI642
I643
sI643
I644
sI644
I645
sI645
I646
sI646
I647
sI647
I648
sI648
I649
sI649
I650
sI650
I651
sI651
I652
sI652
I653
sI653
I654
sI654
I655
sI655
I656
sI656
I657
sI657
I658
sI658
I659
sI659
I660
sI660
I661
sI661
I662
sI662
I663
sI663
I664
sI664
I665
sI665
I666
sI666
I667
sI667
I668
sI668
I669
sI669
I670
sI670
I671
sI671
I672
sI672
I673
sI673
I674
sI674
I675
sI675
I676
sI676
I677
sI677
I678
sI678
I679
sI679
I680
sI680
I681
sI681
I682
sI682
I683
sI683
I684
sI684
I685
sI685
I686
sI686
I687
sI687
I688
sI688
I689
sI689
I690
sI690
I691
sI691
I692
sI692
I693
sI693
I694
sI694
I695
sI695
I696
sI696
I697
sI697
I698
sI698
I699
sI699
I700
sI700
I701
sI701
I702
sI702
I703
sI703
I704
sI704
I705
sI705
I706
sI706
I707
sI707
I708
sI708
I709
sI709
I710
sI710
I711
sI711
I712
sI712
I713
sI713
I714
sI714
I715
sI715
I716
sI716
I717
sI717
I718
sI718
I719
sI719
I720
sI720
I721
sI721
I722
sI722
I723
sI723
I724
sI724
I725
sI725
I726
sI726
I727
sI727
I728
sI728
I729
sI729
I730
sI730
I731
sI731
I732
sI732
I733
sI733
I734
sI734
I735
sI735
I736
sI736
I737
sI737
I738
sI738
I739
sI739
I740
sI740
I741
sI741
I742
sI742
I743
sI743
I744
sI744
I745
sI745
I746
sI746
I747
sI747
I748
sI748
I749
sI749
I750
sI750
I751
sI751
I752
sI752
I753
sI753
I754
sI754
I755
sI755
I756
sI756
I757
sI757
I758
sI758
I759
sI759
I760
sI760
I761
sI761
I762
sI762
I763
sI763
I764
sI764
I765
sI765
I766
sI766
I767
sI767
I768
sI768
I769
sI769
I770
sI770
I771
sI771
I772
sI772
I773
sI773
I774
sI774
I775
sI775
I776
sI776
I777
sI777
I778
sI778
I779
sI779
I780
sI780
I781
sI781
I782
sss.