(dp0
S'id_to_file_row'
p1
(dp2
I1
(I0
I0
tp3
sI2
(I0
I1
tp4
sI3
(I0
I2
tp5
sI4
(I0
I3
tp6
sI5
(I0
I4
tp7
sI6
(I0
I5
tp8
sI7
(I0
I6
tp9
sI8
(I0
I7
tp10
sI9
(I0
I8
tp11
sI10
(I0
I9
tp12
sI11
(I0
I10
tp13
sI12
(I0
I11
tp14
sI13
(I0
I12
tp15
sI14
(I0
I13
tp16
sI15
(I0
I14
tp17
sI16
(I0
I15
tp18
sI17
(I0
I16
tp19
sI18
(I0
I17
tp20
sI19
(I0
I18
tp21
sI20
(I0
I19
tp22
sI21
(I0
I20
tp23
sI22
(I0
I21
tp24
sI23
(I0
I22
tp25
sI24
(I0
I23
tp26
sI25
(I0
I24
tp27
sI26
(I0
I25
tp28
sI27
(I0
I26
tp29
sI28
(I0
I27
tp30
sI29
(I0
I28
tp31
sI30
(I0
I29
tp32
sI31
(I0
I30
tp33
sI32
(I0
I31
tp34
sI33
(I0
I32
tp35
sI34
(I0
I33
tp36
sI35
(I0
I34
tp37
sI36
(I0
I35
tp38
sI37
(I0
I36
tp39
sI38
(I0
I37
tp40
sI39
(I0
I38
tp41
sI40
(I0
I39
tp42
sI41
(I0
I40
tp43
sI42
(I0
I41
tp44
sI43
(I0
I42
tp45
sI44
(I0
I43
tp46
sI45
(I0
I44
tp47
sI46
(I0
I45
tp48
sI47
(I0
I46
tp49
sI48
(I0
I47
tp50
sI49
(I0
I48
tp51
sI50
(I0
I49
tp52
sI51
(I0
I50
tp53
sI52
(I0
I51
tp54
sI53
(I0
I52
tp55
sI54
(I0
I53
tp56
sI55
(I0
I54
tp57
sI56
(I0
I55
tp58
sI57
(I0
I56
tp59
sI58
(I0
I57
tp60
sI59
(I0
I58
tp61
sI60
(I0
I59
tp62
sI61
(I0
I60
tp63
sI62
(I0
I61
tp64
sI63
(I0
I62
tp65
sI64
(I0
I63
tp66
sI65
(I0
I64
tp67
sI66
(I0
I65
tp68
sI67
(I0
I66
tp69
sI68
(I0
I67
tp70
sI69
(I0
I68
tp71
sI70
(I0
I69
tp72
sI71
(I0
I70
tp73
sI72
(I0
I71
tp74
sI73
(I0
I72
tp75
sI74
(I0
I73
tp76
sI75
(I0
I74
tp77
sI76
(I0
I75
tp78
sI77
(I0
I76
tp79
sI78
(I0
I77
tp80
sI79
(I0
I78
tp81
sI80
(I0
I79
tp82
sI81
(I0
I80
tp83
sI82
(I0
I81
tp84
sI83
(I0
I82
tp85
sI84
(I0
I83
tp86
sI85
(I0
I84
tp87
sI86
(I0
I85
tp88
sI87
(I0
I86
tp89
sI88
(I0
I87
tp90
sI89
(I0
I88
tp91
sI90
(I0
I89
tp92
sI91
(I0
I90
tp93
sI92
(I0
I91
tp94
sI93
(I0
I92
tp95
sI94
(I0
I93
tp96
sI95
(I0
I94
tp97
sI96
(I0
I95
tp98
sI97
(I0
I96
tp99
sI98
(I0
I97
tp100
sI99
(I0
I98
tp101
sI100
(I0
I99
tp102
sI101
(I0
I100
tp103
sI102
(I0
I101
tp104
sI103
(I0
I102
tp105
sI104
(I0
I103
tp106
sI105
(I0
I104
tp107
sI106
(I0
I105
tp108
sI107
(I0
I106
tp109
sI108
(I0
I107
tp110
sI109
(I0
I108
tp111
sI110
(I0
I109
tp112
sI111
(I0
I110
tp113
sI112
(I0
I111
tp114
sI113
(I0
I112
tp115
sI114
(I0
I113
tp116
sI115
(I0
I114
tp117
sI116
(I0
I115
tp118
sI117
(I0
I116
tp119
sI118
(I0
I117
tp120
sI119
(I0
I118
tp121
sI120
(I0
I119
tp122
sI121
(I0
I120
tp123
sI122
(I0
I121
tp124
sI123
(I0
I122
tp125
sI124
(I0
I123
tp126
sI125
(I0
I124
tp127
sI126
(I0
I125
tp128
sI127
(I0
I126
tp129
sI128
(I0
I127
tp130
sI129
(I0
I128
tp131
sI130
(I0
I129
tp132
sI131
(I0
I130
tp133
sI132
(I0
I131
tp134
sI133
(I0
I132
tp135
sI134
(I0
I133
tp136
sI135
(I0
I134
tp137
sI136
(I0
I135
tp138
sI137
(I0
I136
tp139
sI138
(I0
I137
tp140
sI139
(I0
I138
tp141
sI140
(I0
I139
tp142
sI141
(I0
I140
tp143
sI142
(I0
I141
tp144
sI143
(I0
I142
tp145
sI144
(I0
I143
tp146
sI145
(I0
I144
tp147
sI146
(I0
I145
tp148
sI147
(I0
I146
tp149
sI148
(I0
I147
tp150
sI149
(I0
I148
tp151
sI150
(I0
I149
tp152
sI151
(I0
I150
tp153
sI152
(I0
I151
tp154
sI153
(I0
I152
tp155
sI154
(I0
I153
tp156
sI155
(I0
I154
tp157
sI156
(I0
I155
tp158
sI157
(I0
I156
tp159
sI158
(I0
I157
tp160
sI159
(I0
I158
tp161
sI160
(I0
I159
tp162
sI161
(I0
I160
tp163
sI162
(I0
I161
tp164
sI163
(I0
I162
tp165
sI164
(I0
I163
tp166
sI165
(I0
I164
tp167
sI166
(I0
I165
tp168
sI167
(I0
I166
tp169
sI168
(I0
I167
tp170
sI169
(I0
I168
tp171
sI170
(I0
I169
tp172
sI171
(I0
I170
tp173
sI172
(I0
I171
tp174
sI173
(I0
I172
tp175
sI174
(I0
I173
tp176
sI175
(I0
I174
tp177
sI176
(I0
I175
tp178
sI177
(I0
I176
tp179
sI178
(I0
I177
tp180
sI179
(I0
I178
tp181
sI180
(I0
I179
tp182
sI181
(I0
I180
tp183
sI182
(I0
I181
tp184
sI183
(I0
I182
tp185
sI184
(I0
I183
tp186
sI185
(I0
I184
tp187
sI186
(I0
I185
tp188
sI187
(I0
I186
tp189
sI188
(I0
I187
tp190
sI189
(I0
I188
tp191
sI190
(I0
I189
tp192
sI191
(I0
I190
tp193
sI192
(I0
I191
tp194
sI193
(I0
I192
tp195
sI194
(I0
I193
tp196
sI195
(I0
I194
tp197
sI196
(I0
I195
tp198
sI197
(I0
I196
tp199
sI198
(I0
I197
tp200
sI199
(I0
I198
tp201
sI200
(I0
I199
tp202
sI201
(I0
I200
tp203
sI202
(I0
I201
tp204
sI203
(I0
I202
tp205
sI204
(I0
I203
tp206
sI205
(I0
I204
tp207
sI206
(I0
I205
tp208
sI207
(I0
I206
tp209
sI208
(I0
I207
tp210
sI209
(I0
I208
tp211
sI210
(I0
I209
tp212
sI211
(I0
I210
tp213
sI212
(I0
I211
tp214
sI213
(I0
I212
tp215
sI214
(I0
I213
tp216
sI215
(I0
I214
tp217
sI216
(I0
I215
tp218
sI217
(I0
I216
tp219
sI218
(I0
I217
tp220
sI219
(I0
I218
tp221
sI220
(I0
I219
tp222
sI221
(I0
I220
tp223
sI222
(I0
I221
tp224
sI223
(I0
I222
tp225
sI224
(I0
I223
tp226
sI225
(I0
I224
tp227
sI226
(I0
I225
tp228
sI227
(I0
I226
tp229
sI228
(I0
I227
tp230
sI229
(I0
I228
tp231
sI230
(I0
I229
tp232
sI231
(I0
I230
tp233
sI232
(I0
I231
tp234
sI233
(I0
I232
tp235
sI234
(I0
I233
tp236
sI235
(I0
I234
tp237
sI236
(I0
I235
tp238
sI237
(I0
I236
tp239
sI238
(I0
I237
tp240
sI239
(I0
I238
tp241
sI240
(I0
I239
tp242
sI241
(I0
I240
tp243
sI242
(I0
I241
tp244
sI243
(I0
I242
tp245
sI244
(I0
I243
tp246
sI245
(I0
I244
tp247
sI246
(I0
I245
tp248
sI247
(I0
I246
tp249
sI248
(I0
I247
tp250
sI249
(I0
I248
tp251
sI250
(I0
I249
tp252
sI251
(I0
I250
tp253
sI252
(I0
I251
tp254
sI253
(I0
I252
tp255
sI254
(I0
I253
tp256
sI255
(I0
I254
tp257
sI256
(I0
I255
tp258
sI257
(I0
I256
tp259
sI258
(I0
I257
tp260
sI259
(I0
I258
tp261
sI260
(I0
I259
tp262
sI261
(I0
I260
tp263
sI262
(I0
I261
tp264
sI263
(I0
I262
tp265
sI264
(I0
I263
tp266
sI265
(I0
I264
tp267
sI266
(I0
I265
tp268
sI267
(I0
I266
tp269
sI268
(I0
I267
tp270
sI269
(I0
I268
tp271
sI270
(I0
I269
tp272
sI271
(I0
I270
tp273
sI272
(I0
I271
tp274
sI273
(I0
I272
tp275
sI274
(I0
I273
tp276
sI275
(I0
I274
tp277
sI276
(I0
I275
tp278
sI277
(I0
I276
tp279
sI278
(I0
I277
tp280
sI279
(I0
I278
tp281
sI280
(I0
I279
tp282
sI281
(I0
I280
tp283
sI282
(I0
I281
tp284
sI283
(I0
I282
tp285
sI284
(I0
I283
tp286
sI285
(I0
I284
tp287
sI286
(I0
I285
tp288
sI287
(I0
I286
tp289
sI288
(I0
I287
tp290
sI289
(I0
I288
tp291
sI290
(I0
I289
tp292
sI291
(I0
I290
tp293
sI292
(I0
I291
tp294
sI293
(I0
I292
tp295
sI294
(I0
I293
tp296
sI295
(I0
I294
tp297
sI296
(I0
I295
tp298
sI297
(I0
I296
tp299
sI298
(I0
I297
tp300
sI299
(I0
I298
tp301
sI300
(I0
I299
tp302
sI301
(I0
I300
tp303
sI302
(I0
I301
tp304
sI303
(I0
I302
tp305
sI304
(I0
I303
tp306
sI305
(I0
I304
tp307
sI306
(I0
I305
tp308
sI307
(I0
I306
tp309
sI308
(I0
I307
tp310
sI309
(I0
I308
tp311
sI310
(I0
I309
tp312
sI311
(I0
I310
tp313
sI312
(I0
I311
tp314
sI313
(I0
I312
tp315
sI314
(I0
I313
tp316
sI315
(I0
I314
tp317
sI316
(I0
I315
tp318
sI317
(I0
I316
tp319
sI318
(I0
I317
tp320
sI319
(I0
I318
tp321
sI320
(I0
I319
tp322
sI321
(I0
I320
tp323
sI322
(I0
I321
tp324
sI323
(I0
I322
tp325
sI324
(I0
I323
tp326
sI325
(I0
I324
tp327
sI326
(I0
I325
tp328
sI327
(I0
I326
tp329
sI328
(I0
I327
tp330
sI329
(I0
I328
tp331
sI330
(I0
I329
tp332
sI331
(I0
I330
tp333
sI332
(I0
I331
tp334
sI333
(I0
I332
tp335
sI334
(I0
I333
tp336
sI335
(I0
I334
tp337
sI336
(I0
I335
tp338
sI337
(I0
I336
tp339
sI338
(I0
I337
tp340
sI339
(I0
I338
tp341
sI340
(I0
I339
tp342
sI341
(I0
I340
tp343
sI342
(I0
I341
tp344
sI343
(I0
I342
tp345
sI344
(I0
I343
tp346
sI345
(I0
I344
tp347
sI346
(I0
I345
tp348
sI347
(I0
I346
tp349
sI348
(I0
I347
tp350
sI349
(I0
I348
tp351
sI350
(I0
I349
tp352
sI351
(I0
I350
tp353
sI352
(I0
I351
tp354
sI353
(I0
I352
tp355
sI354
(I0
I353
tp356
sI355
(I0
I354
tp357
sI356
(I0
I355
tp358
sI357
(I0
I356
tp359
sI358
(I0
I357
tp360
sI359
(I0
I358
tp361
sI360
(I0
I359
tp362
sI361
(I0
I360
tp363
sI362
(I0
I361
tp364
sI363
(I0
I362
tp365
sI364
(I0
I363
tp366
sI365
(I0
I364
tp367
sI366
(I0
I365
tp368
sI367
(I0
I366
tp369
sI368
(I0
I367
tp370
sI369
(I0
I368
tp371
sI370
(I0
I369
tp372
sI371
(I0
I370
tp373
ssS'file_row_to_id_map'
p374
(dp375
I0
(dp376
I0
I1
sI1
I2
sI2
I3
sI3
I4
sI4
I5
sI5
I6
sI6
I7
sI7
I8
sI8
I9
sI9
I10
sI10
I11
sI11
I12
sI12
I13
sI13
I14
sI14
I15
sI15
I16
sI16
I17
sI17
I18
sI18
I19
sI19
I20
sI20
I21
sI21
I22
sI22
I23
sI23
I24
sI24
I25
sI25
I26
sI26
I27
sI27
I28
sI28
I29
sI29
I30
sI30
I31
sI31
I32
sI32
I33
sI33
I34
sI34
I35
sI35
I36
sI36
I37
sI37
I38
sI38
I39
sI39
I40
sI40
I41
sI41
I42
sI42
I43
sI43
I44
sI44
I45
sI45
I46
sI46
I47
sI47
I48
sI48
I49
sI49
I50
sI50
I51
sI51
I52
sI52
I53
sI53
I54
sI54
I55
sI55
I56
sI56
I57
sI57
I58
sI58
I59
sI59
I60
sI60
I61
sI61
I62
sI62
I63
sI63
I64
sI64
I65
sI65
I66
sI66
I67
sI67
I68
sI68
I69
sI69
I70
sI70
I71
sI71
I72
sI72
I73
sI73
I74
sI74
I75
sI75
I76
sI76
I77
sI77
I78
sI78
I79
sI79
I80
sI80
I81
sI81
I82
sI82
I83
sI83
I84
sI84
I85
sI85
I86
sI86
I87
sI87
I88
sI88
I89
sI89
I90
sI90
I91
sI91
I92
sI92
I93
sI93
I94
sI94
I95
sI95
I96
sI96
I97
sI97
I98
sI98
I99
sI99
I100
sI100
I101
sI101
I102
sI102
I103
sI103
I104
sI104
I105
sI105
I106
sI106
I107
sI107
I108
sI108
I109
sI109
I110
sI110
I111
sI111
I112
sI112
I113
sI113
I114
sI114
I115
sI115
I116
sI116
I117
sI117
I118
sI118
I119
sI119
I120
sI120
I121
sI121
I122
sI122
I123
sI123
I124
sI124
I125
sI125
I126
sI126
I127
sI127
I128
sI128
I129
sI129
I130
sI130
I131
sI131
I132
sI132
I133
sI133
I134
sI134
I135
sI135
I136
sI136
I137
sI137
I138
sI138
I139
sI139
I140
sI140
I141
sI141
I142
sI142
I143
sI143
I144
sI144
I145
sI145
I146
sI146
I147
sI147
I148
sI148
I149
sI149
I150
sI150
I151
sI151
I152
sI152
I153
sI153
I154
sI154
I155
sI155
I156
sI156
I157
sI157
I158
sI158
I159
sI159
I160
sI160
I161
sI161
I162
sI162
I163
sI163
I164
sI164
I165
sI165
I166
sI166
I167
sI167
I168
sI168
I169
sI169
I170
sI170
I171
sI171
I172
sI172
I173
sI173
I174
sI174
I175
sI175
I176
sI176
I177
sI177
I178
sI178
I179
sI179
I180
sI180
I181
sI181
I182
sI182
I183
sI183
I184
sI184
I185
sI185
I186
sI186
I187
sI187
I188
sI188
I189
sI189
I190
sI190
I191
sI191
I192
sI192
I193
sI193
I194
sI194
I195
sI195
I196
sI196
I197
sI197
I198
sI198
I199
sI199
I200
sI200
I201
sI201
I202
sI202
I203
sI203
I204
sI204
I205
sI205
I206
sI206
I207
sI207
I208
sI208
I209
sI209
I210
sI210
I211
sI211
I212
sI212
I213
sI213
I214
sI214
I215
sI215
I216
sI216
I217
sI217
I218
sI218
I219
sI219
I220
sI220
I221
sI221
I222
sI222
I223
sI223
I224
sI224
I225
sI225
I226
sI226
I227
sI227
I228
sI228
I229
sI229
I230
sI230
I231
sI231
I232
sI232
I233
sI233
I234
sI234
I235
sI235
I236
sI236
I237
sI237
I238
sI238
I239
sI239
I240
sI240
I241
sI241
I242
sI242
I243
sI243
I244
sI244
I245
sI245
I246
sI246
I247
sI247
I248
sI248
I249
sI249
I250
sI250
I251
sI251
I252
sI252
I253
sI253
I254
sI254
I255
sI255
I256
sI256
I257
sI257
I258
sI258
I259
sI259
I260
sI260
I261
sI261
I262
sI262
I263
sI263
I264
sI264
I265
sI265
I266
sI266
I267
sI267
I268
sI268
I269
sI269
I270
sI270
I271
sI271
I272
sI272
I273
sI273
I274
sI274
I275
sI275
I276
sI276
I277
sI277
I278
sI278
I279
sI279
I280
sI280
I281
sI281
I282
sI282
I283
sI283
I284
sI284
I285
sI285
I286
sI286
I287
sI287
I288
sI288
I289
sI289
I290
sI290
I291
sI291
I292
sI292
I293
sI293
I294
sI294
I295
sI295
I296
sI296
I297
sI297
I298
sI298
I299
sI299
I300
sI300
I301
sI301
I302
sI302
I303
sI303
I304
sI304
I305
sI305
I306
sI306
I307
sI307
I308
sI308
I309
sI309
I310
sI310
I311
sI311
I312
sI312
I313
sI313
I314
sI314
I315
sI315
I316
sI316
I317
sI317
I318
sI318
I319
sI319
I320
sI320
I321
sI321
I322
sI322
I323
sI323
I324
sI324
I325
sI325
I326
sI326
I327
sI327
I328
sI328
I329
sI329
I330
sI330
I331
sI331
I332
sI332
I333
sI333
I334
sI334
I335
sI335
I336
sI336
I337
sI337
I338
sI338
I339
sI339
I340
sI340
I341
sI341
I342
sI342
I343
sI343
I344
sI344
I345
sI345
I346
sI346
I347
sI347
I348
sI348
I349
sI349
I350
sI350
I351
sI351
I352
sI352
I353
sI353
I354
sI354
I355
sI355
I356
sI356
I357
sI357
I358
sI358
I359
sI359
I360
sI360
I361
sI361
I362
sI362
I363
sI363
I364
sI364
I365
sI365
I366
sI366
I367
sI367
I368
sI368
I369
sI369
I370
sI370
I371
sss.